target datalayout = "e-m:e-p270:32:32-p271:32:32-p272:64:64-i64:64-i128:128-f80:128-n8:16:32:64-S128"
target triple = "x86_64-unknown-linux-gnu"

; Function Attrs: nounwind sspstrong uwtable
define internal zeroext i1 @commit_active_cancel(ptr noundef %job, i1 noundef zeroext %force) #0 {
entry:
  %job.addr = alloca ptr, align 8
  %force.addr = alloca i8, align 1
  store ptr %job, ptr %job.addr, align 8
  %frombool = zext i1 %force to i8
  store i8 %frombool, ptr %force.addr, align 1
  %0 = load i8, ptr %force.addr, align 1
  %tobool = trunc i8 %0 to i1
  br i1 %tobool, label %lor.end, label %lor.rhs

lor.rhs:                                          ; preds = %entry
  %1 = load ptr, ptr %job.addr, align 8
  %call = call zeroext i1 @job_is_ready(ptr noundef %1)
  %lnot = xor i1 %call, true
  br label %lor.end

lor.end:                                          ; preds = %lor.rhs, %entry
  %2 = phi i1 [ true, %entry ], [ %lnot, %lor.rhs ]
  ret i1 %2
}