; Function Attrs: nounwind sspstrong uwtable
define internal zeroext i1 @commit_active_cancel(ptr noundef %job, i1 noundef zeroext %force) #0 {
entry:
  br i1 %force, label %lor.end, label %lor.rhs

lor.rhs:                                          ; preds = %entry
  %call = tail call zeroext i1 @job_is_ready(ptr noundef %job) #12
  %lnot = xor i1 %call, true
  br label %lor.end

lor.end:                                          ; preds = %lor.rhs, %entry
  %0 = phi i1 [ true, %entry ], [ %lnot, %lor.rhs ]
  ret i1 %0
}